#include <math.h>
#include <stdio.h>
#include <stdlib.h>
#include <string.h>

int main()
{
	int t;
	int i,j;
	int l;
	int x=0,y=0;
	char s[100010];
	int op[100010];
	scanf("%d",&t);
	while(t--)
	{
		x=0;
		scanf("%s",s);  //????
		l=strlen(s);
		for(i=0;i<l;i++)
			op[i]=0;   //????
		for(i=0;i<l;i++)
		{
			if(op[i]==0)
			{
				op[i]=1;
				y=0;    //?????
				for(j=i+1;j<l;j++)
				{
					if(s[i]==s[j])
					{
						y=1;
						op[j]=1;
					}
				}
				if(y==0)  //????
				{
					x=1;
					printf("%c\n",s[i]);
					break;
				}
			}
		}
		if(x==0)
			printf("no\n");  //????
	}
	return 0;
}